
program.elf:     file format elf32-tradlittlemips


Disassembly of section .text:

00000000 <.text>:
   0:	24080001 	addiu	t0,zero,1
   4:	24020000 	addiu	v0,zero,0
   8:	00000000 	sll	zero,zero,0x0
   c:	00000000 	sll	zero,zero,0x0
  10:	00481021 	addu	v0,v0,t0
  14:	00481023 	subu	v0,v0,t0
  18:	00000010 	mfhi	zero
  1c:	00481021 	addu	v0,v0,t0
  20:	00481023 	subu	v0,v0,t0
  24:	00000000 	sll	zero,zero,0x0
  28:	00000000 	sll	zero,zero,0x0
  2c:	1000fff4 	beqz	zero,0 <.text>
  30:	00000000 	sll	zero,zero,0x0
  34:	00000000 	sll	zero,zero,0x0
  38:	00000000 	sll	zero,zero,0x0
  3c:	00000000 	sll	zero,zero,0x0
  40:	00000000 	sll	zero,zero,0x0
  44:	00000000 	sll	zero,zero,0x0
  48:	00000000 	sll	zero,zero,0x0
  4c:	00000000 	sll	zero,zero,0x0
  50:	00000000 	sll	zero,zero,0x0
  54:	00000000 	sll	zero,zero,0x0
  58:	00000000 	sll	zero,zero,0x0
  5c:	00000000 	sll	zero,zero,0x0
  60:	00000000 	sll	zero,zero,0x0
  64:	00000000 	sll	zero,zero,0x0
  68:	00000000 	sll	zero,zero,0x0
  6c:	00000000 	sll	zero,zero,0x0
  70:	00000000 	sll	zero,zero,0x0
  74:	00000000 	sll	zero,zero,0x0
  78:	00000000 	sll	zero,zero,0x0
  7c:	00000000 	sll	zero,zero,0x0
  80:	00000000 	sll	zero,zero,0x0
  84:	00000000 	sll	zero,zero,0x0
  88:	00000000 	sll	zero,zero,0x0
  8c:	00000000 	sll	zero,zero,0x0
  90:	00000000 	sll	zero,zero,0x0
  94:	00000000 	sll	zero,zero,0x0
  98:	00000000 	sll	zero,zero,0x0
  9c:	00000000 	sll	zero,zero,0x0
  a0:	00000000 	sll	zero,zero,0x0
  a4:	00000000 	sll	zero,zero,0x0
  a8:	00000000 	sll	zero,zero,0x0
  ac:	00000000 	sll	zero,zero,0x0
  b0:	00000000 	sll	zero,zero,0x0
  b4:	00000000 	sll	zero,zero,0x0
  b8:	00000000 	sll	zero,zero,0x0
  bc:	00000000 	sll	zero,zero,0x0
  c0:	00000000 	sll	zero,zero,0x0
  c4:	00000000 	sll	zero,zero,0x0
  c8:	00000000 	sll	zero,zero,0x0
  cc:	00000000 	sll	zero,zero,0x0
  d0:	00000000 	sll	zero,zero,0x0
  d4:	00000000 	sll	zero,zero,0x0
  d8:	00000000 	sll	zero,zero,0x0
  dc:	00000000 	sll	zero,zero,0x0
  e0:	00000000 	sll	zero,zero,0x0
  e4:	00000000 	sll	zero,zero,0x0
  e8:	00000000 	sll	zero,zero,0x0
  ec:	00000000 	sll	zero,zero,0x0
  f0:	00000000 	sll	zero,zero,0x0
  f4:	00000000 	sll	zero,zero,0x0
  f8:	00000000 	sll	zero,zero,0x0
  fc:	00000000 	sll	zero,zero,0x0

00000100 <exception>:
 100:	00404825 	or	t1,v0,zero
 104:	40026000 	mfc0	v0,c0_status
 108:	40026800 	mfc0	v0,c0_cause
 10c:	40027000 	mfc0	v0,c0_epc
 110:	24420004 	addiu	v0,v0,4
 114:	40827000 	mtc0	v0,c0_epc
 118:	01201025 	or	v0,t1,zero
 11c:	00000000 	sll	zero,zero,0x0
 120:	00000000 	sll	zero,zero,0x0
 124:	42000018 	eret
